target datalayout = "e-m:e-p270:32:32-p271:32:32-p272:64:64-i64:64-i128:128-f80:128-n8:16:32:64-S128"
target triple = "x86_64-pc-linux-gnu"

@.str.1 = private unnamed_addr constant [34 x i8] c"../openssl/crypto/conf/conf_def.c\00", align 1
@.str.24 = private unnamed_addr constant [3 x i8] c"rb\00", align 1
@__func__.def_load = private unnamed_addr constant [9 x i8] c"def_load\00", align 1

; Function Attrs: inlinehint nounwind uwtable
define internal i32 @ERR_GET_REASON(i64 noundef %0) #6 {
  %2 = alloca i32, align 4
  %3 = alloca i64, align 8
  store i64 %0, ptr %3, align 8, !tbaa !26
  %4 = load i64, ptr %3, align 8, !tbaa !26
  %5 = and i64 %4, 2147483648
  %6 = icmp ne i64 %5, 0
  br i1 %6, label %7, label %11

7:                                                ; preds = %1
  %8 = load i64, ptr %3, align 8, !tbaa !26
  %9 = and i64 %8, 2147483647
  %10 = trunc i64 %9 to i32
  store i32 %10, ptr %2, align 4
  br label %15

11:                                               ; preds = %1
  %12 = load i64, ptr %3, align 8, !tbaa !26
  %13 = and i64 %12, 8388607
  %14 = trunc i64 %13 to i32
  store i32 %14, ptr %2, align 4
  br label %15

15:                                               ; preds = %11, %7
  %16 = load i32, ptr %2, align 4
  ret i32 %16
}

; Function Attrs: nounwind uwtable
define internal i32 @def_load(ptr noundef %0, ptr noundef %1, ptr noundef %2) #0 {
  %4 = alloca i32, align 4
  %5 = alloca ptr, align 8
  %6 = alloca ptr, align 8
  %7 = alloca ptr, align 8
  %8 = alloca i32, align 4
  %9 = alloca ptr, align 8
  %10 = alloca i32, align 4
  store ptr %0, ptr %5, align 8, !tbaa !8
  store ptr %1, ptr %6, align 8, !tbaa !29
  store ptr %2, ptr %7, align 8, !tbaa !21
  call void @llvm.lifetime.start.p0(i64 4, ptr %8) #9
  call void @llvm.lifetime.start.p0(i64 8, ptr %9) #9
  store ptr null, ptr %9, align 8, !tbaa !19
  %11 = load ptr, ptr %6, align 8, !tbaa !29
  %12 = call ptr @BIO_new_file(ptr noundef %11, ptr noundef @.str.24)
  store ptr %12, ptr %9, align 8, !tbaa !19
  %13 = load ptr, ptr %9, align 8, !tbaa !19
  %14 = icmp eq ptr %13, null
  br i1 %14, label %15, label %22

15:                                               ; preds = %3
  %16 = call i64 @ERR_peek_last_error()
  %17 = call i32 @ERR_GET_REASON(i64 noundef %16)
  %18 = icmp eq i32 %17, 128
  br i1 %18, label %19, label %20

19:                                               ; preds = %15
  call void @ERR_new()
  call void @ERR_set_debug(ptr noundef @.str.1, i32 noundef 179, ptr noundef @__func__.def_load)
  call void (i32, i32, ptr, ...) @ERR_set_error(i32 noundef 14, i32 noundef 114, ptr noundef null)
  br label %21

20:                                               ; preds = %15
  call void @ERR_new()
  call void @ERR_set_debug(ptr noundef @.str.1, i32 noundef 181, ptr noundef @__func__.def_load)
  call void (i32, i32, ptr, ...) @ERR_set_error(i32 noundef 14, i32 noundef 524290, ptr noundef null)
  br label %21

21:                                               ; preds = %20, %19
  store i32 0, ptr %4, align 4
  store i32 1, ptr %10, align 4
  br label %30

22:                                               ; preds = %3
  %23 = load ptr, ptr %5, align 8, !tbaa !8
  %24 = load ptr, ptr %9, align 8, !tbaa !19
  %25 = load ptr, ptr %7, align 8, !tbaa !21
  %26 = call i32 @def_load_bio(ptr noundef %23, ptr noundef %24, ptr noundef %25)
  store i32 %26, ptr %8, align 4, !tbaa !23
  %27 = load ptr, ptr %9, align 8, !tbaa !19
  %28 = call i32 @BIO_free(ptr noundef %27)
  %29 = load i32, ptr %8, align 4, !tbaa !23
  store i32 %29, ptr %4, align 4
  store i32 1, ptr %10, align 4
  br label %30

30:                                               ; preds = %22, %21
  call void @llvm.lifetime.end.p0(i64 8, ptr %9) #9
  call void @llvm.lifetime.end.p0(i64 4, ptr %8) #9
  %31 = load i32, ptr %4, align 4
  ret i32 %31
}