; Function Attrs: nounwind uwtable
define internal range(i32 0, 2) i32 @def_load(ptr noundef %0, ptr noundef %1, ptr noundef captures(address_is_null) %2) #1 {
  %4 = tail call ptr @BIO_new_file(ptr noundef %1, ptr noundef nonnull @.str.24) #15
  %5 = icmp eq ptr %4, null
  br i1 %5, label %6, label %13

6:                                                ; preds = %3
  %7 = tail call i64 @ERR_peek_last_error() #15
  %8 = and i64 %7, 2147483648
  %.not.i = icmp eq i64 %8, 0
  %9 = trunc i64 %7 to i32
  %.0.v.i = select i1 %.not.i, i32 8388607, i32 2147483647
  %.0.i = and i32 %.0.v.i, %9
  %10 = icmp eq i32 %.0.i, 128
  tail call void @ERR_new() #15
  br i1 %10, label %11, label %12

11:                                               ; preds = %6
  tail call void @ERR_set_debug(ptr noundef nonnull @.str.1, i32 noundef 179, ptr noundef nonnull @__func__.def_load) #15
  tail call void (i32, i32, ptr, ...) @ERR_set_error(i32 noundef 14, i32 noundef 114, ptr noundef null) #15
  br label %16

12:                                               ; preds = %6
  tail call void @ERR_set_debug(ptr noundef nonnull @.str.1, i32 noundef 181, ptr noundef nonnull @__func__.def_load) #15
  tail call void (i32, i32, ptr, ...) @ERR_set_error(i32 noundef 14, i32 noundef 524290, ptr noundef null) #15
  br label %16

13:                                               ; preds = %3
  %14 = tail call i32 @def_load_bio(ptr noundef %0, ptr noundef nonnull %4, ptr noundef %2)
  %15 = tail call i32 @BIO_free(ptr noundef nonnull %4) #15
  br label %16

16:                                               ; preds = %11, %12, %13
  %.0 = phi i32 [ %14, %13 ], [ 0, %12 ], [ 0, %11 ]
  ret i32 %.0
}